target datalayout = "e-m:e-p270:32:32-p271:32:32-p272:64:64-i64:64-i128:128-f80:128-n8:16:32:64-S128"
target triple = "x86_64-pc-linux-gnu"

%struct.uat_key_record_t = type { ptr, i8, ptr, [16 x i8] }

@.str.299 = private unnamed_addr constant [20 x i8] c"Key can't be blank.\00", align 1
@.str.300 = private unnamed_addr constant [70 x i8] c"Expecting %d hexadecimal bytes or a %d character double-quoted string\00", align 1

; Function Attrs: null_pointer_is_valid sspstrong uwtable
define internal zeroext i1 @uat_key_record_update_cb(ptr noundef %0, ptr noundef %1) #1 {
  %3 = alloca i1, align 1
  %4 = alloca ptr, align 8
  %5 = alloca ptr, align 8
  %6 = alloca ptr, align 8
  %7 = alloca i32, align 4
  store ptr %0, ptr %4, align 8
  store ptr %1, ptr %5, align 8
  call void @llvm.lifetime.start.p0(i64 8, ptr %6) #11
  %8 = load ptr, ptr %4, align 8
  store ptr %8, ptr %6, align 8
  %9 = load ptr, ptr %6, align 8
  %10 = getelementptr inbounds nuw %struct.uat_key_record_t, ptr %9, i32 0, i32 0
  %11 = load ptr, ptr %10, align 8
  %12 = icmp eq ptr %11, null
  br i1 %12, label %13, label %16

13:                                               ; preds = %2
  %14 = call noalias ptr @g_strdup(ptr noundef @.str.299)
  %15 = load ptr, ptr %5, align 8
  store ptr %14, ptr %15, align 8
  store i1 false, ptr %3, align 1
  store i32 1, ptr %7, align 4
  br label %51

16:                                               ; preds = %2
  %17 = load ptr, ptr %6, align 8
  %18 = getelementptr inbounds nuw %struct.uat_key_record_t, ptr %17, i32 0, i32 0
  %19 = load ptr, ptr %18, align 8
  %20 = call ptr @g_strchug(ptr noundef %19)
  %21 = call ptr @g_strchomp(ptr noundef %20)
  %22 = load ptr, ptr %6, align 8
  %23 = getelementptr inbounds nuw %struct.uat_key_record_t, ptr %22, i32 0, i32 0
  %24 = load ptr, ptr %23, align 8
  %25 = getelementptr i8, ptr %24, i64 0
  %26 = load i8, ptr %25, align 1
  %27 = sext i8 %26 to i32
  %28 = icmp ne i32 %27, 0
  br i1 %28, label %29, label %46

29:                                               ; preds = %16
  %30 = load ptr, ptr %5, align 8
  store ptr null, ptr %30, align 8
  %31 = load ptr, ptr %6, align 8
  %32 = getelementptr inbounds nuw %struct.uat_key_record_t, ptr %31, i32 0, i32 0
  %33 = load ptr, ptr %32, align 8
  %34 = load ptr, ptr %6, align 8
  %35 = getelementptr inbounds nuw %struct.uat_key_record_t, ptr %34, i32 0, i32 3
  %36 = getelementptr inbounds [16 x i8], ptr %35, i64 0, i64 0
  %37 = load ptr, ptr %6, align 8
  %38 = getelementptr inbounds nuw %struct.uat_key_record_t, ptr %37, i32 0, i32 1
  %39 = load i8, ptr %38, align 8
  %40 = icmp ne i8 %39, 0
  %41 = call zeroext i1 @zbee_gp_security_parse_key(ptr noundef %33, ptr noundef %36, i1 noundef zeroext %40)
  br i1 %41, label %45, label %42

42:                                               ; preds = %29
  %43 = call noalias ptr (ptr, ptr, ...) @wmem_strdup_printf(ptr noundef null, ptr noundef @.str.300, i32 noundef 16, i32 noundef 16)
  %44 = load ptr, ptr %5, align 8
  store ptr %43, ptr %44, align 8
  store i1 false, ptr %3, align 1
  store i32 1, ptr %7, align 4
  br label %51

45:                                               ; preds = %29
  br label %49

46:                                               ; preds = %16
  %47 = call noalias ptr @g_strdup(ptr noundef @.str.299)
  %48 = load ptr, ptr %5, align 8
  store ptr %47, ptr %48, align 8
  store i1 false, ptr %3, align 1
  store i32 1, ptr %7, align 4
  br label %51

49:                                               ; preds = %45
  br label %50

50:                                               ; preds = %49
  store i1 true, ptr %3, align 1
  store i32 1, ptr %7, align 4
  br label %51

51:                                               ; preds = %50, %46, %42, %13
  call void @llvm.lifetime.end.p0(i64 8, ptr %6) #11
  %52 = load i1, ptr %3, align 1
  ret i1 %52
}