; Function Attrs: null_pointer_is_valid sspstrong uwtable
define internal noundef zeroext i1 @uat_key_record_update_cb(ptr noundef %0, ptr noundef writeonly captures(none) initializes((0, 8)) %1) #1 {
  %3 = load ptr, ptr %0, align 8
  %4 = icmp eq ptr %3, null
  br i1 %4, label %5, label %7

5:                                                ; preds = %2
  %6 = tail call noalias ptr @g_strdup(ptr noundef nonnull @.str.299)
  br label %.sink.split

7:                                                ; preds = %2
  %8 = tail call ptr @g_strchug(ptr noundef nonnull %3)
  %9 = tail call ptr @g_strchomp(ptr noundef %8)
  %10 = load ptr, ptr %0, align 8
  %11 = load i8, ptr %10, align 1
  %.not = icmp eq i8 %11, 0
  br i1 %.not, label %21, label %12

12:                                               ; preds = %7
  store ptr null, ptr %1, align 8
  %13 = load ptr, ptr %0, align 8
  %14 = getelementptr inbounds nuw i8, ptr %0, i64 24
  %15 = getelementptr inbounds nuw i8, ptr %0, i64 8
  %16 = load i8, ptr %15, align 8
  %17 = icmp ne i8 %16, 0
  %18 = tail call fastcc zeroext i1 @zbee_gp_security_parse_key(ptr noundef %13, ptr noundef nonnull %14, i1 noundef zeroext %17)
  br i1 %18, label %23, label %19

19:                                               ; preds = %12
  %20 = tail call noalias ptr (ptr, ptr, ...) @wmem_strdup_printf(ptr noundef null, ptr noundef nonnull @.str.300, i32 noundef 16, i32 noundef 16)
  br label %.sink.split

21:                                               ; preds = %7
  %22 = tail call noalias ptr @g_strdup(ptr noundef nonnull @.str.299)
  br label %.sink.split

.sink.split:                                      ; preds = %5, %19, %21
  %.sink = phi ptr [ %22, %21 ], [ %20, %19 ], [ %6, %5 ]
  store ptr %.sink, ptr %1, align 8
  br label %23

23:                                               ; preds = %.sink.split, %12
  %.0 = phi i1 [ true, %12 ], [ false, %.sink.split ]
  ret i1 %.0
}